target datalayout = "e-m:e-p270:32:32-p271:32:32-p272:64:64-i64:64-i128:128-f80:128-n8:16:32:64-S128"
target triple = "x86_64-pc-linux-gnu"

@optind = external global i32, align 4
@.str.30 = private unnamed_addr constant [78 x i8] c"Parsing error: non-numeric argument, or extraneous/unrecognized suffix -- %s\0A\00", align 1
@.str.31 = private unnamed_addr constant [41 x i8] c"Parsing error: argument too large -- %s\0A\00", align 1
@.str.32 = private unnamed_addr constant [19 x i8] c"Parsing error: %s\0A\00", align 1
@.str.124 = private unnamed_addr constant [24 x i8] c"zone finish failed: %s\0A\00", align 1

; Function Attrs: nounwind sspstrong uwtable
define internal void @print_cvtnum_err(i64 noundef %0, ptr noundef %1) #0 {
  %3 = alloca i64, align 8
  %4 = alloca ptr, align 8
  store i64 %0, ptr %3, align 8
  store ptr %1, ptr %4, align 8
  %5 = load i64, ptr %3, align 8
  switch i64 %5, label %12 [
    i64 -22, label %6
    i64 -34, label %9
  ]

6:                                                ; preds = %2
  %7 = load ptr, ptr %4, align 8
  %8 = call i32 (i32, ptr, ...) @__printf_chk(i32 noundef 1, ptr noundef @.str.30, ptr noundef %7)
  br label %15

9:                                                ; preds = %2
  %10 = load ptr, ptr %4, align 8
  %11 = call i32 (i32, ptr, ...) @__printf_chk(i32 noundef 1, ptr noundef @.str.31, ptr noundef %10)
  br label %15

12:                                               ; preds = %2
  %13 = load ptr, ptr %4, align 8
  %14 = call i32 (i32, ptr, ...) @__printf_chk(i32 noundef 1, ptr noundef @.str.32, ptr noundef %13)
  br label %15

15:                                               ; preds = %12, %9, %6
  ret void
}

; Function Attrs: nounwind sspstrong uwtable
define internal i64 @cvtnum(ptr noundef %0) #0 {
  %2 = alloca i64, align 8
  %3 = alloca ptr, align 8
  %4 = alloca i32, align 4
  %5 = alloca i64, align 8
  %6 = alloca i32, align 4
  store ptr %0, ptr %3, align 8
  call void @llvm.lifetime.start.p0(i64 4, ptr %4) #18
  store i32 0, ptr %4, align 4, !annotation !4
  call void @llvm.lifetime.start.p0(i64 8, ptr %5) #18
  store i64 0, ptr %5, align 8, !annotation !4
  %7 = load ptr, ptr %3, align 8
  %8 = call i32 @qemu_strtosz(ptr noundef %7, ptr noundef null, ptr noundef %5)
  store i32 %8, ptr %4, align 4
  %9 = load i32, ptr %4, align 4
  %10 = icmp slt i32 %9, 0
  br i1 %10, label %11, label %14

11:                                               ; preds = %1
  %12 = load i32, ptr %4, align 4
  %13 = sext i32 %12 to i64
  store i64 %13, ptr %2, align 8
  store i32 1, ptr %6, align 4
  br label %20

14:                                               ; preds = %1
  %15 = load i64, ptr %5, align 8
  %16 = icmp ugt i64 %15, 9223372036854775807
  br i1 %16, label %17, label %18

17:                                               ; preds = %14
  store i64 -34, ptr %2, align 8
  store i32 1, ptr %6, align 4
  br label %20

18:                                               ; preds = %14
  %19 = load i64, ptr %5, align 8
  store i64 %19, ptr %2, align 8
  store i32 1, ptr %6, align 4
  br label %20

20:                                               ; preds = %18, %17, %11
  call void @llvm.lifetime.end.p0(i64 8, ptr %5) #18
  call void @llvm.lifetime.end.p0(i64 4, ptr %4) #18
  %21 = load i64, ptr %2, align 8
  ret i64 %21
}

; Function Attrs: nounwind sspstrong uwtable
define internal i32 @zone_finish_f(ptr noundef %0, i32 noundef %1, ptr noundef %2) #0 {
  %4 = alloca i32, align 4
  %5 = alloca ptr, align 8
  %6 = alloca i32, align 4
  %7 = alloca ptr, align 8
  %8 = alloca i32, align 4
  %9 = alloca i64, align 8
  %10 = alloca i64, align 8
  %11 = alloca i32, align 4
  store ptr %0, ptr %5, align 8
  store i32 %1, ptr %6, align 4
  store ptr %2, ptr %7, align 8
  call void @llvm.lifetime.start.p0(i64 4, ptr %8) #18
  store i32 0, ptr %8, align 4, !annotation !4
  call void @llvm.lifetime.start.p0(i64 8, ptr %9) #18
  store i64 0, ptr %9, align 8, !annotation !4
  call void @llvm.lifetime.start.p0(i64 8, ptr %10) #18
  store i64 0, ptr %10, align 8, !annotation !4
  %12 = load i32, ptr @optind, align 4
  %13 = add i32 %12, 1
  store i32 %13, ptr @optind, align 4
  %14 = load ptr, ptr %7, align 8
  %15 = load i32, ptr @optind, align 4
  %16 = sext i32 %15 to i64
  %17 = getelementptr inbounds ptr, ptr %14, i64 %16
  %18 = load ptr, ptr %17, align 8
  %19 = call i64 @cvtnum(ptr noundef %18)
  store i64 %19, ptr %9, align 8
  %20 = load i64, ptr %9, align 8
  %21 = icmp slt i64 %20, 0
  br i1 %21, label %22, label %31

22:                                               ; preds = %3
  %23 = load i64, ptr %9, align 8
  %24 = load ptr, ptr %7, align 8
  %25 = load i32, ptr @optind, align 4
  %26 = sext i32 %25 to i64
  %27 = getelementptr inbounds ptr, ptr %24, i64 %26
  %28 = load ptr, ptr %27, align 8
  call void @print_cvtnum_err(i64 noundef %23, ptr noundef %28)
  %29 = load i64, ptr %9, align 8
  %30 = trunc i64 %29 to i32
  store i32 %30, ptr %4, align 4
  store i32 1, ptr %11, align 4
  br label %65

31:                                               ; preds = %3
  %32 = load i32, ptr @optind, align 4
  %33 = add i32 %32, 1
  store i32 %33, ptr @optind, align 4
  %34 = load ptr, ptr %7, align 8
  %35 = load i32, ptr @optind, align 4
  %36 = sext i32 %35 to i64
  %37 = getelementptr inbounds ptr, ptr %34, i64 %36
  %38 = load ptr, ptr %37, align 8
  %39 = call i64 @cvtnum(ptr noundef %38)
  store i64 %39, ptr %10, align 8
  %40 = load i64, ptr %10, align 8
  %41 = icmp slt i64 %40, 0
  br i1 %41, label %42, label %51

42:                                               ; preds = %31
  %43 = load i64, ptr %10, align 8
  %44 = load ptr, ptr %7, align 8
  %45 = load i32, ptr @optind, align 4
  %46 = sext i32 %45 to i64
  %47 = getelementptr inbounds ptr, ptr %44, i64 %46
  %48 = load ptr, ptr %47, align 8
  call void @print_cvtnum_err(i64 noundef %43, ptr noundef %48)
  %49 = load i64, ptr %10, align 8
  %50 = trunc i64 %49 to i32
  store i32 %50, ptr %4, align 4
  store i32 1, ptr %11, align 4
  br label %65

51:                                               ; preds = %31
  %52 = load ptr, ptr %5, align 8
  %53 = load i64, ptr %9, align 8
  %54 = load i64, ptr %10, align 8
  %55 = call i32 @blk_zone_mgmt(ptr noundef %52, i32 noundef 2, i64 noundef %53, i64 noundef %54)
  store i32 %55, ptr %8, align 4
  %56 = load i32, ptr %8, align 4
  %57 = icmp slt i32 %56, 0
  br i1 %57, label %58, label %63

58:                                               ; preds = %51
  %59 = load i32, ptr %8, align 4
  %60 = sub i32 0, %59
  %61 = call ptr @strerror(i32 noundef %60) #18
  %62 = call i32 (i32, ptr, ...) @__printf_chk(i32 noundef 1, ptr noundef @.str.124, ptr noundef %61)
  br label %63

63:                                               ; preds = %58, %51
  %64 = load i32, ptr %8, align 4
  store i32 %64, ptr %4, align 4
  store i32 1, ptr %11, align 4
  br label %65

65:                                               ; preds = %63, %42, %22
  call void @llvm.lifetime.end.p0(i64 8, ptr %10) #18
  call void @llvm.lifetime.end.p0(i64 8, ptr %9) #18
  call void @llvm.lifetime.end.p0(i64 4, ptr %8) #18
  %66 = load i32, ptr %4, align 4
  ret i32 %66
}