; Function Attrs: nounwind sspstrong uwtable
define internal i32 @zone_finish_f(ptr noundef %0, i32 %1, ptr noundef readonly captures(none) %2) #0 {
  %4 = alloca i64, align 8
  %5 = alloca i64, align 8
  %6 = load i32, ptr @optind, align 4
  %7 = add i32 %6, 1
  store i32 %7, ptr @optind, align 4
  %8 = sext i32 %7 to i64
  %9 = getelementptr inbounds ptr, ptr %2, i64 %8
  %10 = load ptr, ptr %9, align 8
  call void @llvm.lifetime.start.p0(i64 8, ptr nonnull %5) #26
  store i64 0, ptr %5, align 8, !annotation !8
  %11 = call i32 @qemu_strtosz(ptr noundef %10, ptr noundef null, ptr noundef nonnull %5) #26
  %12 = icmp slt i32 %11, 0
  %13 = sext i32 %11 to i64
  %14 = load i64, ptr %5, align 8
  %15 = icmp slt i64 %14, 0
  %..i = select i1 %15, i64 -34, i64 %14
  %.0.i = select i1 %12, i64 %13, i64 %..i
  call void @llvm.lifetime.end.p0(i64 8, ptr nonnull %5) #26
  %16 = icmp slt i64 %.0.i, 0
  %17 = load i32, ptr @optind, align 4
  br i1 %16, label %18, label %24

18:                                               ; preds = %3
  %19 = sext i32 %17 to i64
  %20 = getelementptr inbounds ptr, ptr %2, i64 %19
  %21 = load ptr, ptr %20, align 8
  %switch.selectcmp.i = icmp eq i64 %.0.i, -34
  %switch.select.i = select i1 %switch.selectcmp.i, ptr @.str.31, ptr @.str.32
  %switch.selectcmp3.i = icmp eq i64 %.0.i, -22
  %switch.select4.i = select i1 %switch.selectcmp3.i, ptr @.str.30, ptr %switch.select.i
  %22 = call i32 (i32, ptr, ...) @__printf_chk(i32 noundef 1, ptr noundef nonnull %switch.select4.i, ptr noundef %21) #26
  %23 = trunc nsw i64 %.0.i to i32
  br label %49

24:                                               ; preds = %3
  %25 = add i32 %17, 1
  store i32 %25, ptr @optind, align 4
  %26 = sext i32 %25 to i64
  %27 = getelementptr inbounds ptr, ptr %2, i64 %26
  %28 = load ptr, ptr %27, align 8
  call void @llvm.lifetime.start.p0(i64 8, ptr nonnull %4) #26
  store i64 0, ptr %4, align 8, !annotation !8
  %29 = call i32 @qemu_strtosz(ptr noundef %28, ptr noundef null, ptr noundef nonnull %4) #26
  %30 = icmp slt i32 %29, 0
  %31 = sext i32 %29 to i64
  %32 = load i64, ptr %4, align 8
  %33 = icmp slt i64 %32, 0
  %..i20 = select i1 %33, i64 -34, i64 %32
  %.0.i21 = select i1 %30, i64 %31, i64 %..i20
  call void @llvm.lifetime.end.p0(i64 8, ptr nonnull %4) #26
  %34 = icmp slt i64 %.0.i21, 0
  br i1 %34, label %35, label %42

35:                                               ; preds = %24
  %36 = load i32, ptr @optind, align 4
  %37 = sext i32 %36 to i64
  %38 = getelementptr inbounds ptr, ptr %2, i64 %37
  %39 = load ptr, ptr %38, align 8
  %switch.selectcmp.i22 = icmp eq i64 %.0.i21, -34
  %switch.select.i23 = select i1 %switch.selectcmp.i22, ptr @.str.31, ptr @.str.32
  %switch.selectcmp3.i24 = icmp eq i64 %.0.i21, -22
  %switch.select4.i25 = select i1 %switch.selectcmp3.i24, ptr @.str.30, ptr %switch.select.i23
  %40 = call i32 (i32, ptr, ...) @__printf_chk(i32 noundef 1, ptr noundef nonnull %switch.select4.i25, ptr noundef %39) #26
  %41 = trunc nsw i64 %.0.i21 to i32
  br label %49

42:                                               ; preds = %24
  %43 = call i32 @blk_zone_mgmt(ptr noundef %0, i32 noundef 2, i64 noundef %.0.i, i64 noundef %.0.i21) #26
  %44 = icmp slt i32 %43, 0
  br i1 %44, label %45, label %49

45:                                               ; preds = %42
  %46 = sub i32 0, %43
  %47 = call ptr @strerror(i32 noundef %46) #26
  %48 = call i32 (i32, ptr, ...) @__printf_chk(i32 noundef 1, ptr noundef nonnull @.str.124, ptr noundef %47) #26
  br label %49

49:                                               ; preds = %42, %45, %35, %18
  %.0 = phi i32 [ %23, %18 ], [ %41, %35 ], [ %43, %45 ], [ %43, %42 ]
  ret i32 %.0
}